; ModuleID = '29/275.c'
source_filename = "29/275.c"
target datalayout = "e-m:e-p270:32:32-p271:32:32-p272:64:64-i64:64-f80:128-n8:16:32:64-S128"
target triple = "x86_64-pc-linux-gnu"

@.str = private unnamed_addr constant [3 x i8] c"%d\00", align 1
@.str.1 = private unnamed_addr constant [6 x i8] c"%.3f\0A\00", align 1

; Function Attrs: noinline nounwind uwtable
define dso_local i32 @main() #0 {
  %1 = alloca i32, align 4
  %2 = alloca i32, align 4
  %3 = alloca i32, align 4
  %4 = alloca i32, align 4
  %5 = alloca i32, align 4
  %6 = alloca i32, align 4
  %7 = alloca i32, align 4
  %8 = alloca i32, align 4
  %9 = alloca float, align 4
  store i32 0, i32* %1, align 4
  store i32 1, i32* %6, align 4
  store i32 1, i32* %7, align 4
  store float 0.000000e+00, float* %9, align 4
  %10 = call i32 (i8*, ...) @__isoc99_scanf(i8* getelementptr inbounds ([3 x i8], [3 x i8]* @.str, i64 0, i64 0), i32* %2)
  store i32 1, i32* %3, align 4
  br label %11

11:                                               ; preds = %41, %0
  %12 = load i32, i32* %3, align 4
  %13 = load i32, i32* %2, align 4
  %14 = icmp sle i32 %12, %13
  br i1 %14, label %15, label %44

15:                                               ; preds = %11
  %16 = call i32 (i8*, ...) @__isoc99_scanf(i8* getelementptr inbounds ([3 x i8], [3 x i8]* @.str, i64 0, i64 0), i32* %5)
  store i32 1, i32* %4, align 4
  br label %17

17:                                               ; preds = %34, %15
  %18 = load i32, i32* %4, align 4
  %19 = load i32, i32* %5, align 4
  %20 = icmp sle i32 %18, %19
  br i1 %20, label %21, label %37

21:                                               ; preds = %17
  %22 = load i32, i32* %6, align 4
  store i32 %22, i32* %8, align 4
  %23 = load i32, i32* %6, align 4
  %24 = load i32, i32* %7, align 4
  %25 = add nsw i32 %23, %24
  store i32 %25, i32* %6, align 4
  %26 = load i32, i32* %8, align 4
  store i32 %26, i32* %7, align 4
  %27 = load i32, i32* %6, align 4
  %28 = sitofp i32 %27 to float
  %29 = load i32, i32* %7, align 4
  %30 = sitofp i32 %29 to float
  %31 = fdiv float %28, %30
  %32 = load float, float* %9, align 4
  %33 = fadd float %32, %31
  store float %33, float* %9, align 4
  br label %34

34:                                               ; preds = %21
  %35 = load i32, i32* %4, align 4
  %36 = add nsw i32 %35, 1
  store i32 %36, i32* %4, align 4
  br label %17

37:                                               ; preds = %17
  %38 = load float, float* %9, align 4
  %39 = fpext float %38 to double
  %40 = call i32 (i8*, ...) @printf(i8* getelementptr inbounds ([6 x i8], [6 x i8]* @.str.1, i64 0, i64 0), double %39)
  store float 0.000000e+00, float* %9, align 4
  store i32 1, i32* %6, align 4
  store i32 1, i32* %7, align 4
  br label %41

41:                                               ; preds = %37
  %42 = load i32, i32* %3, align 4
  %43 = add nsw i32 %42, 1
  store i32 %43, i32* %3, align 4
  br label %11

44:                                               ; preds = %11
  ret i32 0
}

declare dso_local i32 @__isoc99_scanf(i8*, ...) #1

declare dso_local i32 @printf(i8*, ...) #1


!llvm.module.flags = !{!0}
!llvm.ident = !{!1}

!0 = !{i32 1, !"wchar_size", i32 4}
!1 = !{!"clang version 10.0.0-4ubuntu1 "}
